; Function Attrs: mustprogress uwtable
define noundef zeroext i1 @_ZNK5folly11IPAddressV610isLoopbackEv(ptr noundef nonnull readonly align 4 captures(none) dereferenceable(18) %0) local_unnamed_addr #0 align 2 personality ptr @__gxx_personality_v0 {
  %2 = alloca %"class.folly::IPAddressV4", align 4
  br label %4

3:                                                ; preds = %4
  %indvars.iv.next.i = add nuw nsw i64 %indvars.iv.i, 1
  %exitcond.i = icmp eq i64 %indvars.iv.next.i, 10
  br i1 %exitcond.i, label %.critedge.i, label %4, !llvm.loop !7

4:                                                ; preds = %3, %1
  %indvars.iv.i = phi i64 [ 0, %1 ], [ %indvars.iv.next.i, %3 ]
  %5 = getelementptr inbounds nuw i8, ptr %0, i64 %indvars.iv.i
  %6 = load i8, ptr %5, align 1, !tbaa !9
  %.not.i = icmp eq i8 %6, 0
  br i1 %.not.i, label %3, label %_ZNK5folly11IPAddressV612isIPv4MappedEv.exit.thread

.critedge.i:                                      ; preds = %3
  %7 = getelementptr inbounds nuw i8, ptr %0, i64 10
  %8 = load i8, ptr %7, align 2, !tbaa !9
  %9 = icmp eq i8 %8, -1
  br i1 %9, label %_ZNK5folly11IPAddressV612isIPv4MappedEv.exit, label %_ZNK5folly11IPAddressV612isIPv4MappedEv.exit.thread

_ZNK5folly11IPAddressV612isIPv4MappedEv.exit.thread: ; preds = %4, %.critedge.i
  call void @llvm.lifetime.start.p0(i64 4, ptr nonnull %2) #37
  br label %.critedge

_ZNK5folly11IPAddressV612isIPv4MappedEv.exit:     ; preds = %.critedge.i
  %10 = getelementptr inbounds nuw i8, ptr %0, i64 11
  %11 = load i8, ptr %10, align 1, !tbaa !9
  %12 = icmp eq i8 %11, -1
  call void @llvm.lifetime.start.p0(i64 4, ptr nonnull %2) #37
  br i1 %12, label %.preheader, label %.critedge

13:                                               ; preds = %.preheader
  %indvars.iv.next.i.i = add nuw nsw i64 %indvars.iv.i.i, 1
  %exitcond.i.i = icmp eq i64 %indvars.iv.next.i.i, 10
  br i1 %exitcond.i.i, label %_ZNK5folly11IPAddressV610createIPv4Ev.exit, label %.preheader, !llvm.loop !7

.preheader:                                       ; preds = %_ZNK5folly11IPAddressV612isIPv4MappedEv.exit, %13
  %indvars.iv.i.i = phi i64 [ %indvars.iv.next.i.i, %13 ], [ 0, %_ZNK5folly11IPAddressV612isIPv4MappedEv.exit ]
  %14 = getelementptr inbounds nuw i8, ptr %0, i64 %indvars.iv.i.i
  %15 = load i8, ptr %14, align 1, !tbaa !9
  %.not.i.i = icmp eq i8 %15, 0
  br i1 %.not.i.i, label %13, label %_ZNK5folly11IPAddressV612isIPv4MappedEv.exit.thread.i

_ZNK5folly11IPAddressV612isIPv4MappedEv.exit.thread.i: ; preds = %.preheader
  %16 = tail call ptr @__cxa_allocate_exception(i64 16) #37
  invoke void @_ZN5folly24IPAddressFormatExceptionCI2St13runtime_errorEPKc(ptr noundef nonnull align 8 dereferenceable(16) %16, ptr noundef nonnull @.str.35)
          to label %17 unwind label %18

17:                                               ; preds = %_ZNK5folly11IPAddressV612isIPv4MappedEv.exit.thread.i
  tail call void @__cxa_throw(ptr nonnull %16, ptr nonnull @_ZTIN5folly24IPAddressFormatExceptionE, ptr nonnull @_ZNSt13runtime_errorD2Ev) #40
  unreachable

18:                                               ; preds = %_ZNK5folly11IPAddressV612isIPv4MappedEv.exit.thread.i
  %19 = landingpad { ptr, i32 }
          cleanup
  tail call void @__cxa_free_exception(ptr nonnull %16) #37
  resume { ptr, i32 } %19

_ZNK5folly11IPAddressV610createIPv4Ev.exit:       ; preds = %13
  %20 = getelementptr inbounds nuw i8, ptr %0, i64 12
  %.sroa.0.0.copyload.i.i = load i32, ptr %20, align 4
  call void @_ZN5folly11IPAddressV4C1E7in_addr(ptr noundef nonnull align 4 dereferenceable(4) %2, i32 %.sroa.0.0.copyload.i.i) #37
  %21 = call noundef zeroext i1 @_ZNK5folly11IPAddressV410isLoopbackEv(ptr noundef nonnull align 4 dereferenceable(4) %2)
  call void @llvm.lifetime.end.p0(i64 4, ptr nonnull %2) #37
  br i1 %21, label %28, label %22

.critedge:                                        ; preds = %_ZNK5folly11IPAddressV612isIPv4MappedEv.exit.thread, %_ZNK5folly11IPAddressV612isIPv4MappedEv.exit
  call void @llvm.lifetime.end.p0(i64 4, ptr nonnull %2) #37
  br label %22

22:                                               ; preds = %.critedge, %_ZNK5folly11IPAddressV610createIPv4Ev.exit
  %.sroa.4.8.copyload = load i32, ptr %0, align 4
  %.sroa.6.8..sroa_idx = getelementptr inbounds nuw i8, ptr %0, i64 4
  %.sroa.6.8.copyload = load i32, ptr %.sroa.6.8..sroa_idx, align 4
  %.sroa.7.8..sroa_idx = getelementptr inbounds nuw i8, ptr %0, i64 8
  %.sroa.7.8.copyload = load i32, ptr %.sroa.7.8..sroa_idx, align 4
  %23 = icmp eq i32 %.sroa.4.8.copyload, 0
  %24 = icmp eq i32 %.sroa.6.8.copyload, 0
  %or.cond = select i1 %23, i1 %24, i1 false
  %25 = icmp eq i32 %.sroa.7.8.copyload, 0
  %or.cond10 = select i1 %or.cond, i1 %25, i1 false
  br i1 %or.cond10, label %26, label %28

26:                                               ; preds = %22
  %.sroa.8.8..sroa_idx = getelementptr inbounds nuw i8, ptr %0, i64 12
  %.sroa.8.8.copyload = load i32, ptr %.sroa.8.8..sroa_idx, align 4
  %27 = icmp eq i32 %.sroa.8.8.copyload, 16777216
  br label %28

28:                                               ; preds = %22, %26, %_ZNK5folly11IPAddressV610createIPv4Ev.exit
  %.0 = phi i1 [ true, %_ZNK5folly11IPAddressV610createIPv4Ev.exit ], [ false, %22 ], [ %27, %26 ]
  ret i1 %.0
}